target datalayout = "e-m:e-p270:32:32-p271:32:32-p272:64:64-i64:64-i128:128-f80:128-n8:16:32:64-S128"
target triple = "x86_64-pc-linux-gnu"

%struct.TypeCacheEntry = type { i32, i32, i16, i8, i8, i8, i8, i32, i32, i32, i32, i32, i32, i32, i32, i32, i32, i32, i32, i32, i32, %struct.FmgrInfo, %struct.FmgrInfo, %struct.FmgrInfo, %struct.FmgrInfo, ptr, i64, ptr, i32, i32, %struct.FmgrInfo, %struct.FmgrInfo, %struct.FmgrInfo, ptr, i32, i32, ptr, i32, ptr, ptr }
%struct.FmgrInfo = type { ptr, i32, i16, i8, i8, i8, ptr, ptr, ptr }
%struct.EnumItem = type { i32, float }
%struct.TypeCacheEnumData = type { i32, ptr, i32, [0 x %struct.EnumItem] }

@.str.3 = private unnamed_addr constant [11 x i8] c"typcache.c\00", align 1
@.str.9 = private unnamed_addr constant [45 x i8] c"enum value %u not found in cache for enum %s\00", align 1
@__func__.compare_values_of_enum = private unnamed_addr constant [23 x i8] c"compare_values_of_enum\00", align 1

; Function Attrs: inlinehint nounwind uwtable
define available_externally ptr @bsearch(ptr noundef nonnull %0, ptr noundef nonnull %1, i64 noundef %2, i64 noundef %3, ptr noundef nonnull %4) #3 {
  %6 = alloca ptr, align 8
  %7 = alloca ptr, align 8
  %8 = alloca ptr, align 8
  %9 = alloca i64, align 8
  %10 = alloca i64, align 8
  %11 = alloca ptr, align 8
  %12 = alloca i64, align 8
  %13 = alloca i64, align 8
  %14 = alloca i64, align 8
  %15 = alloca ptr, align 8
  %16 = alloca i32, align 4
  %17 = alloca i32, align 4
  store ptr %0, ptr %7, align 8
  store ptr %1, ptr %8, align 8
  store i64 %2, ptr %9, align 8
  store i64 %3, ptr %10, align 8
  store ptr %4, ptr %11, align 8
  call void @llvm.lifetime.start.p0(i64 8, ptr %12) #11
  call void @llvm.lifetime.start.p0(i64 8, ptr %13) #11
  call void @llvm.lifetime.start.p0(i64 8, ptr %14) #11
  call void @llvm.lifetime.start.p0(i64 8, ptr %15) #11
  call void @llvm.lifetime.start.p0(i64 4, ptr %16) #11
  store i64 0, ptr %12, align 8
  %18 = load i64, ptr %9, align 8
  store i64 %18, ptr %13, align 8
  br label %19

19:                                               ; preds = %50, %5
  %20 = load i64, ptr %12, align 8
  %21 = load i64, ptr %13, align 8
  %22 = icmp ult i64 %20, %21
  br i1 %22, label %23, label %51

23:                                               ; preds = %19
  %24 = load i64, ptr %12, align 8
  %25 = load i64, ptr %13, align 8
  %26 = add i64 %24, %25
  %27 = udiv i64 %26, 2
  store i64 %27, ptr %14, align 8
  %28 = load ptr, ptr %8, align 8
  %29 = load i64, ptr %14, align 8
  %30 = load i64, ptr %10, align 8
  %31 = mul i64 %29, %30
  %32 = getelementptr inbounds nuw i8, ptr %28, i64 %31
  store ptr %32, ptr %15, align 8
  %33 = load ptr, ptr %11, align 8
  %34 = load ptr, ptr %7, align 8
  %35 = load ptr, ptr %15, align 8
  %36 = call i32 %33(ptr noundef %34, ptr noundef %35)
  store i32 %36, ptr %16, align 4
  %37 = load i32, ptr %16, align 4
  %38 = icmp slt i32 %37, 0
  br i1 %38, label %39, label %41

39:                                               ; preds = %23
  %40 = load i64, ptr %14, align 8
  store i64 %40, ptr %13, align 8
  br label %50

41:                                               ; preds = %23
  %42 = load i32, ptr %16, align 4
  %43 = icmp sgt i32 %42, 0
  br i1 %43, label %44, label %47

44:                                               ; preds = %41
  %45 = load i64, ptr %14, align 8
  %46 = add i64 %45, 1
  store i64 %46, ptr %12, align 8
  br label %49

47:                                               ; preds = %41
  %48 = load ptr, ptr %15, align 8
  store ptr %48, ptr %6, align 8
  store i32 1, ptr %17, align 4
  br label %52

49:                                               ; preds = %44
  br label %50

50:                                               ; preds = %49, %39
  br label %19, !llvm.loop !22

51:                                               ; preds = %19
  store ptr null, ptr %6, align 8
  store i32 1, ptr %17, align 4
  br label %52

52:                                               ; preds = %51, %47
  call void @llvm.lifetime.end.p0(i64 4, ptr %16) #11
  call void @llvm.lifetime.end.p0(i64 8, ptr %15) #11
  call void @llvm.lifetime.end.p0(i64 8, ptr %14) #11
  call void @llvm.lifetime.end.p0(i64 8, ptr %13) #11
  call void @llvm.lifetime.end.p0(i64 8, ptr %12) #11
  %53 = load ptr, ptr %6, align 8
  ret ptr %53
}

; Function Attrs: nounwind uwtable
define internal ptr @find_enumitem(ptr noundef %0, i32 noundef %1) #0 {
  %3 = alloca ptr, align 8
  %4 = alloca ptr, align 8
  %5 = alloca i32, align 4
  %6 = alloca %struct.EnumItem, align 4
  %7 = alloca i32, align 4
  store ptr %0, ptr %4, align 8
  store i32 %1, ptr %5, align 4
  call void @llvm.lifetime.start.p0(i64 8, ptr %6) #11
  %8 = load ptr, ptr %4, align 8
  %9 = getelementptr inbounds nuw %struct.TypeCacheEnumData, ptr %8, i32 0, i32 2
  %10 = load i32, ptr %9, align 8
  %11 = icmp sle i32 %10, 0
  br i1 %11, label %12, label %13

12:                                               ; preds = %2
  store ptr null, ptr %3, align 8
  store i32 1, ptr %7, align 4
  br label %24

13:                                               ; preds = %2
  %14 = load i32, ptr %5, align 4
  %15 = getelementptr inbounds nuw %struct.EnumItem, ptr %6, i32 0, i32 0
  store i32 %14, ptr %15, align 4
  %16 = load ptr, ptr %4, align 8
  %17 = getelementptr inbounds nuw %struct.TypeCacheEnumData, ptr %16, i32 0, i32 3
  %18 = getelementptr inbounds [0 x %struct.EnumItem], ptr %17, i64 0, i64 0
  %19 = load ptr, ptr %4, align 8
  %20 = getelementptr inbounds nuw %struct.TypeCacheEnumData, ptr %19, i32 0, i32 2
  %21 = load i32, ptr %20, align 8
  %22 = sext i32 %21 to i64
  %23 = call ptr @bsearch(ptr noundef %6, ptr noundef %18, i64 noundef %22, i64 noundef 8, ptr noundef @enum_oid_cmp)
  store ptr %23, ptr %3, align 8
  store i32 1, ptr %7, align 4
  br label %24

24:                                               ; preds = %13, %12
  call void @llvm.lifetime.end.p0(i64 8, ptr %6) #11
  %25 = load ptr, ptr %3, align 8
  ret ptr %25
}

; Function Attrs: inlinehint nounwind uwtable
define internal zeroext i1 @enum_known_sorted(ptr noundef %0, i32 noundef %1) #3 {
  %3 = alloca i1, align 1
  %4 = alloca ptr, align 8
  %5 = alloca i32, align 4
  %6 = alloca i32, align 4
  %7 = alloca i32, align 4
  store ptr %0, ptr %4, align 8
  store i32 %1, ptr %5, align 4
  call void @llvm.lifetime.start.p0(i64 4, ptr %6) #11
  %8 = load i32, ptr %5, align 4
  %9 = load ptr, ptr %4, align 8
  %10 = getelementptr inbounds nuw %struct.TypeCacheEnumData, ptr %9, i32 0, i32 0
  %11 = load i32, ptr %10, align 8
  %12 = icmp ult i32 %8, %11
  br i1 %12, label %13, label %14

13:                                               ; preds = %2
  store i1 false, ptr %3, align 1
  store i32 1, ptr %7, align 4
  br label %29

14:                                               ; preds = %2
  %15 = load i32, ptr %5, align 4
  %16 = load ptr, ptr %4, align 8
  %17 = getelementptr inbounds nuw %struct.TypeCacheEnumData, ptr %16, i32 0, i32 0
  %18 = load i32, ptr %17, align 8
  %19 = sub i32 %15, %18
  store i32 %19, ptr %6, align 4
  %20 = load i32, ptr %6, align 4
  %21 = icmp ugt i32 %20, 2147483647
  br i1 %21, label %22, label %23

22:                                               ; preds = %14
  store i1 false, ptr %3, align 1
  store i32 1, ptr %7, align 4
  br label %29

23:                                               ; preds = %14
  %24 = load i32, ptr %6, align 4
  %25 = load ptr, ptr %4, align 8
  %26 = getelementptr inbounds nuw %struct.TypeCacheEnumData, ptr %25, i32 0, i32 1
  %27 = load ptr, ptr %26, align 8
  %28 = call zeroext i1 @bms_is_member(i32 noundef %24, ptr noundef %27)
  store i1 %28, ptr %3, align 1
  store i32 1, ptr %7, align 4
  br label %29

29:                                               ; preds = %23, %22, %13
  call void @llvm.lifetime.end.p0(i64 4, ptr %6) #11
  %30 = load i1, ptr %3, align 1
  ret i1 %30
}

; Function Attrs: nounwind uwtable
define dso_local i32 @compare_values_of_enum(ptr noundef %0, i32 noundef %1, i32 noundef %2) #0 {
  %4 = alloca i32, align 4
  %5 = alloca ptr, align 8
  %6 = alloca i32, align 4
  %7 = alloca i32, align 4
  %8 = alloca ptr, align 8
  %9 = alloca ptr, align 8
  %10 = alloca ptr, align 8
  %11 = alloca i32, align 4
  store ptr %0, ptr %5, align 8
  store i32 %1, ptr %6, align 4
  store i32 %2, ptr %7, align 4
  call void @llvm.lifetime.start.p0(i64 8, ptr %8) #11
  call void @llvm.lifetime.start.p0(i64 8, ptr %9) #11
  call void @llvm.lifetime.start.p0(i64 8, ptr %10) #11
  %12 = load i32, ptr %6, align 4
  %13 = load i32, ptr %7, align 4
  %14 = icmp eq i32 %12, %13
  br i1 %14, label %15, label %16

15:                                               ; preds = %3
  store i32 0, ptr %4, align 4
  store i32 1, ptr %11, align 4
  br label %120

16:                                               ; preds = %3
  %17 = load ptr, ptr %5, align 8
  %18 = getelementptr inbounds nuw %struct.TypeCacheEntry, ptr %17, i32 0, i32 38
  %19 = load ptr, ptr %18, align 8
  %20 = icmp eq ptr %19, null
  br i1 %20, label %21, label %23

21:                                               ; preds = %16
  %22 = load ptr, ptr %5, align 8
  call void @load_enum_cache_data(ptr noundef %22)
  br label %23

23:                                               ; preds = %21, %16
  %24 = load ptr, ptr %5, align 8
  %25 = getelementptr inbounds nuw %struct.TypeCacheEntry, ptr %24, i32 0, i32 38
  %26 = load ptr, ptr %25, align 8
  store ptr %26, ptr %8, align 8
  %27 = load ptr, ptr %8, align 8
  %28 = load i32, ptr %6, align 4
  %29 = call zeroext i1 @enum_known_sorted(ptr noundef %27, i32 noundef %28)
  br i1 %29, label %30, label %40

30:                                               ; preds = %23
  %31 = load ptr, ptr %8, align 8
  %32 = load i32, ptr %7, align 4
  %33 = call zeroext i1 @enum_known_sorted(ptr noundef %31, i32 noundef %32)
  br i1 %33, label %34, label %40

34:                                               ; preds = %30
  %35 = load i32, ptr %6, align 4
  %36 = load i32, ptr %7, align 4
  %37 = icmp ult i32 %35, %36
  br i1 %37, label %38, label %39

38:                                               ; preds = %34
  store i32 -1, ptr %4, align 4
  store i32 1, ptr %11, align 4
  br label %120

39:                                               ; preds = %34
  store i32 1, ptr %4, align 4
  store i32 1, ptr %11, align 4
  br label %120

40:                                               ; preds = %30, %23
  %41 = load ptr, ptr %8, align 8
  %42 = load i32, ptr %6, align 4
  %43 = call ptr @find_enumitem(ptr noundef %41, i32 noundef %42)
  store ptr %43, ptr %9, align 8
  %44 = load ptr, ptr %8, align 8
  %45 = load i32, ptr %7, align 4
  %46 = call ptr @find_enumitem(ptr noundef %44, i32 noundef %45)
  store ptr %46, ptr %10, align 8
  %47 = load ptr, ptr %9, align 8
  %48 = icmp eq ptr %47, null
  br i1 %48, label %52, label %49

49:                                               ; preds = %40
  %50 = load ptr, ptr %10, align 8
  %51 = icmp eq ptr %50, null
  br i1 %51, label %52, label %101

52:                                               ; preds = %49, %40
  %53 = load ptr, ptr %5, align 8
  call void @load_enum_cache_data(ptr noundef %53)
  %54 = load ptr, ptr %5, align 8
  %55 = getelementptr inbounds nuw %struct.TypeCacheEntry, ptr %54, i32 0, i32 38
  %56 = load ptr, ptr %55, align 8
  store ptr %56, ptr %8, align 8
  %57 = load ptr, ptr %8, align 8
  %58 = load i32, ptr %6, align 4
  %59 = call ptr @find_enumitem(ptr noundef %57, i32 noundef %58)
  store ptr %59, ptr %9, align 8
  %60 = load ptr, ptr %8, align 8
  %61 = load i32, ptr %7, align 4
  %62 = call ptr @find_enumitem(ptr noundef %60, i32 noundef %61)
  store ptr %62, ptr %10, align 8
  %63 = load ptr, ptr %9, align 8
  %64 = icmp eq ptr %63, null
  br i1 %64, label %65, label %81

65:                                               ; preds = %52
  br label %66

66:                                               ; preds = %65
  br i1 true, label %67, label %69

67:                                               ; preds = %66
  %68 = call zeroext i1 @errstart_cold(i32 noundef 21, ptr noundef null) #12
  br i1 %68, label %71, label %78

69:                                               ; preds = %66
  %70 = call zeroext i1 @errstart(i32 noundef 21, ptr noundef null)
  br i1 %70, label %71, label %78

71:                                               ; preds = %69, %67
  %72 = load i32, ptr %6, align 4
  %73 = load ptr, ptr %5, align 8
  %74 = getelementptr inbounds nuw %struct.TypeCacheEntry, ptr %73, i32 0, i32 0
  %75 = load i32, ptr %74, align 8
  %76 = call ptr @format_type_be(i32 noundef %75)
  %77 = call i32 (ptr, ...) @errmsg_internal(ptr noundef @.str.9, i32 noundef %72, ptr noundef %76)
  call void @errfinish(ptr noundef @.str.3, i32 noundef 2705, ptr noundef @__func__.compare_values_of_enum)
  br label %78

78:                                               ; preds = %71, %69, %67
  unreachable

79:                                               ; No predecessors!
  br label %80

80:                                               ; preds = %79
  br label %81

81:                                               ; preds = %80, %52
  %82 = load ptr, ptr %10, align 8
  %83 = icmp eq ptr %82, null
  br i1 %83, label %84, label %100

84:                                               ; preds = %81
  br label %85

85:                                               ; preds = %84
  br i1 true, label %86, label %88

86:                                               ; preds = %85
  %87 = call zeroext i1 @errstart_cold(i32 noundef 21, ptr noundef null) #12
  br i1 %87, label %90, label %97

88:                                               ; preds = %85
  %89 = call zeroext i1 @errstart(i32 noundef 21, ptr noundef null)
  br i1 %89, label %90, label %97

90:                                               ; preds = %88, %86
  %91 = load i32, ptr %7, align 4
  %92 = load ptr, ptr %5, align 8
  %93 = getelementptr inbounds nuw %struct.TypeCacheEntry, ptr %92, i32 0, i32 0
  %94 = load i32, ptr %93, align 8
  %95 = call ptr @format_type_be(i32 noundef %94)
  %96 = call i32 (ptr, ...) @errmsg_internal(ptr noundef @.str.9, i32 noundef %91, ptr noundef %95)
  call void @errfinish(ptr noundef @.str.3, i32 noundef 2708, ptr noundef @__func__.compare_values_of_enum)
  br label %97

97:                                               ; preds = %90, %88, %86
  unreachable

98:                                               ; No predecessors!
  br label %99

99:                                               ; preds = %98
  br label %100

100:                                              ; preds = %99, %81
  br label %101

101:                                              ; preds = %100, %49
  %102 = load ptr, ptr %9, align 8
  %103 = getelementptr inbounds nuw %struct.EnumItem, ptr %102, i32 0, i32 1
  %104 = load float, ptr %103, align 4
  %105 = load ptr, ptr %10, align 8
  %106 = getelementptr inbounds nuw %struct.EnumItem, ptr %105, i32 0, i32 1
  %107 = load float, ptr %106, align 4
  %108 = fcmp olt float %104, %107
  br i1 %108, label %109, label %110

109:                                              ; preds = %101
  store i32 -1, ptr %4, align 4
  store i32 1, ptr %11, align 4
  br label %120

110:                                              ; preds = %101
  %111 = load ptr, ptr %9, align 8
  %112 = getelementptr inbounds nuw %struct.EnumItem, ptr %111, i32 0, i32 1
  %113 = load float, ptr %112, align 4
  %114 = load ptr, ptr %10, align 8
  %115 = getelementptr inbounds nuw %struct.EnumItem, ptr %114, i32 0, i32 1
  %116 = load float, ptr %115, align 4
  %117 = fcmp ogt float %113, %116
  br i1 %117, label %118, label %119

118:                                              ; preds = %110
  store i32 1, ptr %4, align 4
  store i32 1, ptr %11, align 4
  br label %120

119:                                              ; preds = %110
  store i32 0, ptr %4, align 4
  store i32 1, ptr %11, align 4
  br label %120

120:                                              ; preds = %119, %118, %109, %39, %38, %15
  call void @llvm.lifetime.end.p0(i64 8, ptr %10) #11
  call void @llvm.lifetime.end.p0(i64 8, ptr %9) #11
  call void @llvm.lifetime.end.p0(i64 8, ptr %8) #11
  %121 = load i32, ptr %4, align 4
  ret i32 %121
}