; Function Attrs: nounwind uwtable
define dso_local range(i32 -1, 2) i32 @compare_values_of_enum(ptr noundef captures(none) %0, i32 noundef %1, i32 noundef %2) local_unnamed_addr #0 {
  %4 = icmp eq i32 %1, %2
  br i1 %4, label %111, label %5

5:                                                ; preds = %3
  %6 = getelementptr inbounds nuw i8, ptr %0, i64 472
  %7 = load ptr, ptr %6, align 8
  %8 = icmp eq ptr %7, null
  br i1 %8, label %9, label %10

9:                                                ; preds = %5
  tail call fastcc void @load_enum_cache_data(ptr noundef nonnull %0)
  %.pre = load ptr, ptr %6, align 8
  br label %10

10:                                               ; preds = %9, %5
  %11 = phi ptr [ %.pre, %9 ], [ %7, %5 ]
  %12 = load i32, ptr %11, align 8
  %13 = icmp ult i32 %1, %12
  br i1 %13, label %enum_known_sorted.exit.thread, label %14

14:                                               ; preds = %10
  %15 = sub nuw i32 %1, %12
  %16 = icmp slt i32 %15, 0
  br i1 %16, label %enum_known_sorted.exit.thread, label %enum_known_sorted.exit

enum_known_sorted.exit:                           ; preds = %14
  %17 = getelementptr inbounds nuw i8, ptr %11, i64 8
  %18 = load ptr, ptr %17, align 8
  %19 = tail call zeroext i1 @bms_is_member(i32 noundef %15, ptr noundef %18) #16
  br i1 %19, label %20, label %enum_known_sorted.exit.thread

20:                                               ; preds = %enum_known_sorted.exit
  %21 = load i32, ptr %11, align 8
  %22 = icmp ult i32 %2, %21
  br i1 %22, label %enum_known_sorted.exit.thread, label %23

23:                                               ; preds = %20
  %24 = sub nuw i32 %2, %21
  %25 = icmp slt i32 %24, 0
  br i1 %25, label %enum_known_sorted.exit.thread, label %enum_known_sorted.exit46

enum_known_sorted.exit46:                         ; preds = %23
  %26 = load ptr, ptr %17, align 8
  %27 = tail call zeroext i1 @bms_is_member(i32 noundef %24, ptr noundef %26) #16
  br i1 %27, label %28, label %enum_known_sorted.exit.thread

28:                                               ; preds = %enum_known_sorted.exit46
  %29 = icmp ult i32 %1, %2
  %. = select i1 %29, i32 -1, i32 1
  br label %111

enum_known_sorted.exit.thread:                    ; preds = %23, %20, %14, %10, %enum_known_sorted.exit46, %enum_known_sorted.exit
  %30 = getelementptr inbounds nuw i8, ptr %11, i64 16
  %31 = load i32, ptr %30, align 8
  %32 = icmp slt i32 %31, 1
  br i1 %32, label %find_enumitem.exit56.thread, label %33

33:                                               ; preds = %enum_known_sorted.exit.thread
  %34 = getelementptr inbounds nuw i8, ptr %11, i64 20
  %35 = zext nneg i32 %31 to i64
  br label %.lr.ph.i.i

.lr.ph.i.i:                                       ; preds = %45, %33
  %.01621.i.i = phi i64 [ %.1.i.i, %45 ], [ 0, %33 ]
  %.01720.i.i = phi i64 [ %.118.i.i, %45 ], [ %35, %33 ]
  %36 = add i64 %.01720.i.i, %.01621.i.i
  %37 = lshr i64 %36, 1
  %38 = shl i64 %37, 3
  %39 = getelementptr inbounds nuw i8, ptr %34, i64 %38
  %40 = load i32, ptr %39, align 4
  %41 = icmp ult i32 %1, %40
  br i1 %41, label %45, label %42

42:                                               ; preds = %.lr.ph.i.i
  %.not.i.i = icmp eq i32 %1, %40
  br i1 %.not.i.i, label %find_enumitem.exit.split.loop.exit110, label %43

43:                                               ; preds = %42
  %44 = add nuw i64 %37, 1
  br label %45

45:                                               ; preds = %43, %.lr.ph.i.i
  %.118.i.i = phi i64 [ %.01720.i.i, %43 ], [ %37, %.lr.ph.i.i ]
  %.1.i.i = phi i64 [ %44, %43 ], [ %.01621.i.i, %.lr.ph.i.i ]
  %46 = icmp ult i64 %.1.i.i, %.118.i.i
  br i1 %46, label %.lr.ph.i.i, label %find_enumitem.exit, !llvm.loop !16

find_enumitem.exit.split.loop.exit110:            ; preds = %42
  %47 = getelementptr inbounds nuw i8, ptr %34, i64 %38
  br label %find_enumitem.exit

find_enumitem.exit:                               ; preds = %45, %find_enumitem.exit.split.loop.exit110
  %.0.i47 = phi ptr [ %47, %find_enumitem.exit.split.loop.exit110 ], [ null, %45 ]
  br label %.lr.ph.i.i48

.lr.ph.i.i48:                                     ; preds = %57, %find_enumitem.exit
  %.01621.i.i49 = phi i64 [ %.1.i.i53, %57 ], [ 0, %find_enumitem.exit ]
  %.01720.i.i50 = phi i64 [ %.118.i.i52, %57 ], [ %35, %find_enumitem.exit ]
  %48 = add i64 %.01720.i.i50, %.01621.i.i49
  %49 = lshr i64 %48, 1
  %50 = shl i64 %49, 3
  %51 = getelementptr inbounds nuw i8, ptr %34, i64 %50
  %52 = load i32, ptr %51, align 4
  %53 = icmp ult i32 %2, %52
  br i1 %53, label %57, label %54

54:                                               ; preds = %.lr.ph.i.i48
  %.not.i.i51 = icmp eq i32 %2, %52
  br i1 %.not.i.i51, label %find_enumitem.exit56, label %55

55:                                               ; preds = %54
  %56 = add nuw i64 %49, 1
  br label %57

57:                                               ; preds = %55, %.lr.ph.i.i48
  %.118.i.i52 = phi i64 [ %.01720.i.i50, %55 ], [ %49, %.lr.ph.i.i48 ]
  %.1.i.i53 = phi i64 [ %56, %55 ], [ %.01621.i.i49, %.lr.ph.i.i48 ]
  %58 = icmp ult i64 %.1.i.i53, %.118.i.i52
  br i1 %58, label %.lr.ph.i.i48, label %find_enumitem.exit56.thread, !llvm.loop !16

find_enumitem.exit56:                             ; preds = %54
  %59 = getelementptr inbounds nuw i8, ptr %34, i64 %50
  %60 = icmp eq ptr %.0.i47, null
  br i1 %60, label %find_enumitem.exit56.thread, label %103

find_enumitem.exit56.thread:                      ; preds = %57, %enum_known_sorted.exit.thread, %find_enumitem.exit56
  tail call fastcc void @load_enum_cache_data(ptr noundef %0)
  %61 = load ptr, ptr %6, align 8
  %62 = getelementptr inbounds nuw i8, ptr %61, i64 16
  %63 = load i32, ptr %62, align 8
  %64 = icmp slt i32 %63, 1
  br i1 %64, label %find_enumitem.exit74.thread, label %65

65:                                               ; preds = %find_enumitem.exit56.thread
  %66 = getelementptr inbounds nuw i8, ptr %61, i64 20
  %67 = zext nneg i32 %63 to i64
  br label %.lr.ph.i.i57

.lr.ph.i.i57:                                     ; preds = %77, %65
  %.01621.i.i58 = phi i64 [ %.1.i.i62, %77 ], [ 0, %65 ]
  %.01720.i.i59 = phi i64 [ %.118.i.i61, %77 ], [ %67, %65 ]
  %68 = add i64 %.01720.i.i59, %.01621.i.i58
  %69 = lshr i64 %68, 1
  %70 = shl i64 %69, 3
  %71 = getelementptr inbounds nuw i8, ptr %66, i64 %70
  %72 = load i32, ptr %71, align 4
  %73 = icmp ult i32 %1, %72
  br i1 %73, label %77, label %74

74:                                               ; preds = %.lr.ph.i.i57
  %.not.i.i60 = icmp eq i32 %1, %72
  br i1 %.not.i.i60, label %find_enumitem.exit65.split.loop.exit114, label %75

75:                                               ; preds = %74
  %76 = add nuw i64 %69, 1
  br label %77

77:                                               ; preds = %75, %.lr.ph.i.i57
  %.118.i.i61 = phi i64 [ %.01720.i.i59, %75 ], [ %69, %.lr.ph.i.i57 ]
  %.1.i.i62 = phi i64 [ %76, %75 ], [ %.01621.i.i58, %.lr.ph.i.i57 ]
  %78 = icmp ult i64 %.1.i.i62, %.118.i.i61
  br i1 %78, label %.lr.ph.i.i57, label %find_enumitem.exit65, !llvm.loop !16

find_enumitem.exit65.split.loop.exit114:          ; preds = %74
  %79 = getelementptr inbounds nuw i8, ptr %66, i64 %70
  br label %find_enumitem.exit65

find_enumitem.exit65:                             ; preds = %77, %find_enumitem.exit65.split.loop.exit114
  %.0.i63 = phi ptr [ %79, %find_enumitem.exit65.split.loop.exit114 ], [ null, %77 ]
  br label %.lr.ph.i.i66

.lr.ph.i.i66:                                     ; preds = %89, %find_enumitem.exit65
  %.01621.i.i67 = phi i64 [ %.1.i.i71, %89 ], [ 0, %find_enumitem.exit65 ]
  %.01720.i.i68 = phi i64 [ %.118.i.i70, %89 ], [ %67, %find_enumitem.exit65 ]
  %80 = add i64 %.01720.i.i68, %.01621.i.i67
  %81 = lshr i64 %80, 1
  %82 = shl i64 %81, 3
  %83 = getelementptr inbounds nuw i8, ptr %66, i64 %82
  %84 = load i32, ptr %83, align 4
  %85 = icmp ult i32 %2, %84
  br i1 %85, label %89, label %86

86:                                               ; preds = %.lr.ph.i.i66
  %.not.i.i69 = icmp eq i32 %2, %84
  br i1 %.not.i.i69, label %find_enumitem.exit74, label %87

87:                                               ; preds = %86
  %88 = add nuw i64 %81, 1
  br label %89

89:                                               ; preds = %87, %.lr.ph.i.i66
  %.118.i.i70 = phi i64 [ %.01720.i.i68, %87 ], [ %81, %.lr.ph.i.i66 ]
  %.1.i.i71 = phi i64 [ %88, %87 ], [ %.01621.i.i67, %.lr.ph.i.i66 ]
  %90 = icmp ult i64 %.1.i.i71, %.118.i.i70
  br i1 %90, label %.lr.ph.i.i66, label %find_enumitem.exit74.thread103, !llvm.loop !16

find_enumitem.exit74:                             ; preds = %86
  %91 = getelementptr inbounds nuw i8, ptr %66, i64 %82
  %92 = icmp eq ptr %.0.i63, null
  br i1 %92, label %find_enumitem.exit74.thread, label %103

find_enumitem.exit74.thread103:                   ; preds = %89
  %93 = icmp eq ptr %.0.i63, null
  br i1 %93, label %find_enumitem.exit74.thread, label %98

find_enumitem.exit74.thread:                      ; preds = %find_enumitem.exit74.thread103, %find_enumitem.exit56.thread, %find_enumitem.exit74
  %94 = tail call zeroext i1 @errstart_cold(i32 noundef 21, ptr noundef null) #17
  tail call void @llvm.assume(i1 %94)
  %95 = load i32, ptr %0, align 8
  %96 = tail call ptr @format_type_be(i32 noundef %95) #16
  %97 = tail call i32 (ptr, ...) @errmsg_internal(ptr noundef nonnull @.str.9, i32 noundef %1, ptr noundef %96) #16
  tail call void @errfinish(ptr noundef nonnull @.str.3, i32 noundef 2705, ptr noundef nonnull @__func__.compare_values_of_enum) #16
  unreachable

98:                                               ; preds = %find_enumitem.exit74.thread103
  %99 = tail call zeroext i1 @errstart_cold(i32 noundef 21, ptr noundef null) #17
  tail call void @llvm.assume(i1 %99)
  %100 = load i32, ptr %0, align 8
  %101 = tail call ptr @format_type_be(i32 noundef %100) #16
  %102 = tail call i32 (ptr, ...) @errmsg_internal(ptr noundef nonnull @.str.9, i32 noundef %2, ptr noundef %101) #16
  tail call void @errfinish(ptr noundef nonnull @.str.3, i32 noundef 2708, ptr noundef nonnull @__func__.compare_values_of_enum) #16
  unreachable

103:                                              ; preds = %find_enumitem.exit74, %find_enumitem.exit56
  %.034 = phi ptr [ %.0.i47, %find_enumitem.exit56 ], [ %.0.i63, %find_enumitem.exit74 ]
  %.0 = phi ptr [ %59, %find_enumitem.exit56 ], [ %91, %find_enumitem.exit74 ]
  %104 = getelementptr inbounds nuw i8, ptr %.034, i64 4
  %105 = load float, ptr %104, align 4
  %106 = getelementptr inbounds nuw i8, ptr %.0, i64 4
  %107 = load float, ptr %106, align 4
  %108 = fcmp olt float %105, %107
  br i1 %108, label %111, label %109

109:                                              ; preds = %103
  %110 = fcmp ogt float %105, %107
  %.44 = zext i1 %110 to i32
  br label %111

111:                                              ; preds = %109, %103, %28, %3
  %.035 = phi i32 [ 0, %3 ], [ %., %28 ], [ -1, %103 ], [ %.44, %109 ]
  ret i32 %.035
}